target datalayout = "e-m:e-p270:32:32-p271:32:32-p272:64:64-i64:64-i128:128-f80:128-n8:16:32:64-S128"
target triple = "x86_64-pc-linux-gnu"

%struct.tm = type { i32, i32, i32, i32, i32, i32, i32, i32, i32, i64, ptr }

@.str = private unnamed_addr constant [36 x i8] c"%s, %02d %s %04d %02d:%02d:%02d GMT\00", align 1
@day_short_names = internal constant [7 x ptr] [ptr @.str.10, ptr @.str.11, ptr @.str.12, ptr @.str.13, ptr @.str.14, ptr @.str.15, ptr @.str.16], align 16
@mon_short_names = internal constant [12 x ptr] [ptr @.str.17, ptr @.str.18, ptr @.str.19, ptr @.str.20, ptr @.str.21, ptr @.str.22, ptr @.str.23, ptr @.str.24, ptr @.str.25, ptr @.str.26, ptr @.str.27, ptr @.str.28], align 16

; Function Attrs: nounwind uwtable
define ptr @php_std_date(i64 noundef %0) #0 {
  %2 = alloca ptr, align 8
  %3 = alloca i64, align 8
  %4 = alloca ptr, align 8
  %5 = alloca %struct.tm, align 8
  %6 = alloca ptr, align 8
  store i64 %0, ptr %3, align 8
  %7 = call ptr @gmtime_r(ptr noundef %3, ptr noundef %5) #6
  store ptr %7, ptr %4, align 8
  %8 = call noalias ptr @_emalloc_96()
  store ptr %8, ptr %6, align 8
  %9 = load ptr, ptr %6, align 8
  %10 = getelementptr inbounds i8, ptr %9, i64 0
  store i8 0, ptr %10, align 1
  %11 = load ptr, ptr %4, align 8
  %12 = icmp ne ptr %11, null
  br i1 %12, label %15, label %13

13:                                               ; preds = %1
  %14 = load ptr, ptr %6, align 8
  store ptr %14, ptr %2, align 8
  br label %49

15:                                               ; preds = %1
  %16 = load ptr, ptr %6, align 8
  %17 = load ptr, ptr %4, align 8
  %18 = getelementptr inbounds %struct.tm, ptr %17, i32 0, i32 6
  %19 = load i32, ptr %18, align 8
  %20 = sext i32 %19 to i64
  %21 = getelementptr inbounds [7 x ptr], ptr @day_short_names, i64 0, i64 %20
  %22 = load ptr, ptr %21, align 8
  %23 = load ptr, ptr %4, align 8
  %24 = getelementptr inbounds %struct.tm, ptr %23, i32 0, i32 3
  %25 = load i32, ptr %24, align 4
  %26 = load ptr, ptr %4, align 8
  %27 = getelementptr inbounds %struct.tm, ptr %26, i32 0, i32 4
  %28 = load i32, ptr %27, align 8
  %29 = sext i32 %28 to i64
  %30 = getelementptr inbounds [12 x ptr], ptr @mon_short_names, i64 0, i64 %29
  %31 = load ptr, ptr %30, align 8
  %32 = load ptr, ptr %4, align 8
  %33 = getelementptr inbounds %struct.tm, ptr %32, i32 0, i32 5
  %34 = load i32, ptr %33, align 4
  %35 = add nsw i32 %34, 1900
  %36 = load ptr, ptr %4, align 8
  %37 = getelementptr inbounds %struct.tm, ptr %36, i32 0, i32 2
  %38 = load i32, ptr %37, align 8
  %39 = load ptr, ptr %4, align 8
  %40 = getelementptr inbounds %struct.tm, ptr %39, i32 0, i32 1
  %41 = load i32, ptr %40, align 4
  %42 = load ptr, ptr %4, align 8
  %43 = getelementptr inbounds %struct.tm, ptr %42, i32 0, i32 0
  %44 = load i32, ptr %43, align 8
  %45 = call i32 (ptr, i64, ptr, ...) @ap_php_snprintf(ptr noundef %16, i64 noundef 80, ptr noundef @.str, ptr noundef %22, i32 noundef %25, ptr noundef %31, i32 noundef %35, i32 noundef %38, i32 noundef %41, i32 noundef %44)
  %46 = load ptr, ptr %6, align 8
  %47 = getelementptr inbounds i8, ptr %46, i64 79
  store i8 0, ptr %47, align 1
  %48 = load ptr, ptr %6, align 8
  store ptr %48, ptr %2, align 8
  br label %49

49:                                               ; preds = %15, %13
  %50 = load ptr, ptr %2, align 8
  ret ptr %50
}