; Function Attrs: nounwind uwtable
define noundef ptr @php_std_date(i64 noundef %0) local_unnamed_addr #0 {
  %2 = alloca i64, align 8
  %3 = alloca %struct.tm, align 8
  store i64 %0, ptr %2, align 8
  %4 = call ptr @gmtime_r(ptr noundef nonnull %2, ptr noundef nonnull %3) #4
  %5 = call noalias ptr @_emalloc_96() #4
  store i8 0, ptr %5, align 1
  %.not = icmp eq ptr %4, null
  br i1 %.not, label %29, label %6

6:                                                ; preds = %1
  %7 = getelementptr inbounds i8, ptr %4, i64 24
  %8 = load i32, ptr %7, align 8
  %9 = sext i32 %8 to i64
  %10 = getelementptr inbounds [7 x ptr], ptr @day_short_names, i64 0, i64 %9
  %11 = load ptr, ptr %10, align 8
  %12 = getelementptr inbounds i8, ptr %4, i64 12
  %13 = load i32, ptr %12, align 4
  %14 = getelementptr inbounds i8, ptr %4, i64 16
  %15 = load i32, ptr %14, align 8
  %16 = sext i32 %15 to i64
  %17 = getelementptr inbounds [12 x ptr], ptr @mon_short_names, i64 0, i64 %16
  %18 = load ptr, ptr %17, align 8
  %19 = getelementptr inbounds i8, ptr %4, i64 20
  %20 = load i32, ptr %19, align 4
  %21 = add nsw i32 %20, 1900
  %22 = getelementptr inbounds i8, ptr %4, i64 8
  %23 = load i32, ptr %22, align 8
  %24 = getelementptr inbounds i8, ptr %4, i64 4
  %25 = load i32, ptr %24, align 4
  %26 = load i32, ptr %4, align 8
  %27 = call i32 (ptr, i64, ptr, ...) @ap_php_snprintf(ptr noundef nonnull %5, i64 noundef 80, ptr noundef nonnull @.str, ptr noundef %11, i32 noundef %13, ptr noundef %18, i32 noundef %21, i32 noundef %23, i32 noundef %25, i32 noundef %26) #4
  %28 = getelementptr inbounds i8, ptr %5, i64 79
  store i8 0, ptr %28, align 1
  br label %29

29:                                               ; preds = %1, %6
  ret ptr %5
}